target datalayout = "e-m:e-p270:32:32-p271:32:32-p272:64:64-i64:64-i128:128-f80:128-n8:16:32:64-S128"
target triple = "x86_64-pc-linux-gnu"

%struct.RangeTableFuncCol = type { i32, ptr, ptr, i8, i8, ptr, ptr, i32 }

; Function Attrs: nounwind uwtable
define internal zeroext i1 @_equalRangeTableFuncCol(ptr noundef %0, ptr noundef %1) #0 {
  %3 = alloca i1, align 1
  %4 = alloca ptr, align 8
  %5 = alloca ptr, align 8
  store ptr %0, ptr %4, align 8
  store ptr %1, ptr %5, align 8
  br label %6

6:                                                ; preds = %2
  %7 = load ptr, ptr %4, align 8
  %8 = getelementptr inbounds nuw %struct.RangeTableFuncCol, ptr %7, i32 0, i32 1
  %9 = load ptr, ptr %8, align 8
  %10 = icmp ne ptr %9, null
  br i1 %10, label %11, label %25

11:                                               ; preds = %6
  %12 = load ptr, ptr %5, align 8
  %13 = getelementptr inbounds nuw %struct.RangeTableFuncCol, ptr %12, i32 0, i32 1
  %14 = load ptr, ptr %13, align 8
  %15 = icmp ne ptr %14, null
  br i1 %15, label %16, label %25

16:                                               ; preds = %11
  %17 = load ptr, ptr %4, align 8
  %18 = getelementptr inbounds nuw %struct.RangeTableFuncCol, ptr %17, i32 0, i32 1
  %19 = load ptr, ptr %18, align 8
  %20 = load ptr, ptr %5, align 8
  %21 = getelementptr inbounds nuw %struct.RangeTableFuncCol, ptr %20, i32 0, i32 1
  %22 = load ptr, ptr %21, align 8
  %23 = call i32 @strcmp(ptr noundef %19, ptr noundef %22) #8
  %24 = icmp eq i32 %23, 0
  br i1 %24, label %34, label %33

25:                                               ; preds = %11, %6
  %26 = load ptr, ptr %4, align 8
  %27 = getelementptr inbounds nuw %struct.RangeTableFuncCol, ptr %26, i32 0, i32 1
  %28 = load ptr, ptr %27, align 8
  %29 = load ptr, ptr %5, align 8
  %30 = getelementptr inbounds nuw %struct.RangeTableFuncCol, ptr %29, i32 0, i32 1
  %31 = load ptr, ptr %30, align 8
  %32 = icmp eq ptr %28, %31
  br i1 %32, label %34, label %33

33:                                               ; preds = %25, %16
  store i1 false, ptr %3, align 1
  br label %99

34:                                               ; preds = %25, %16
  br label %35

35:                                               ; preds = %34
  br label %36

36:                                               ; preds = %35
  %37 = load ptr, ptr %4, align 8
  %38 = getelementptr inbounds nuw %struct.RangeTableFuncCol, ptr %37, i32 0, i32 2
  %39 = load ptr, ptr %38, align 8
  %40 = load ptr, ptr %5, align 8
  %41 = getelementptr inbounds nuw %struct.RangeTableFuncCol, ptr %40, i32 0, i32 2
  %42 = load ptr, ptr %41, align 8
  %43 = call zeroext i1 @equal(ptr noundef %39, ptr noundef %42)
  br i1 %43, label %45, label %44

44:                                               ; preds = %36
  store i1 false, ptr %3, align 1
  br label %99

45:                                               ; preds = %36
  br label %46

46:                                               ; preds = %45
  br label %47

47:                                               ; preds = %46
  %48 = load ptr, ptr %4, align 8
  %49 = getelementptr inbounds nuw %struct.RangeTableFuncCol, ptr %48, i32 0, i32 3
  %50 = load i8, ptr %49, align 8, !range !4, !noundef !5
  %51 = trunc i8 %50 to i1
  %52 = zext i1 %51 to i32
  %53 = load ptr, ptr %5, align 8
  %54 = getelementptr inbounds nuw %struct.RangeTableFuncCol, ptr %53, i32 0, i32 3
  %55 = load i8, ptr %54, align 8, !range !4, !noundef !5
  %56 = trunc i8 %55 to i1
  %57 = zext i1 %56 to i32
  %58 = icmp ne i32 %52, %57
  br i1 %58, label %59, label %60

59:                                               ; preds = %47
  store i1 false, ptr %3, align 1
  br label %99

60:                                               ; preds = %47
  br label %61

61:                                               ; preds = %60
  br label %62

62:                                               ; preds = %61
  %63 = load ptr, ptr %4, align 8
  %64 = getelementptr inbounds nuw %struct.RangeTableFuncCol, ptr %63, i32 0, i32 4
  %65 = load i8, ptr %64, align 1, !range !4, !noundef !5
  %66 = trunc i8 %65 to i1
  %67 = zext i1 %66 to i32
  %68 = load ptr, ptr %5, align 8
  %69 = getelementptr inbounds nuw %struct.RangeTableFuncCol, ptr %68, i32 0, i32 4
  %70 = load i8, ptr %69, align 1, !range !4, !noundef !5
  %71 = trunc i8 %70 to i1
  %72 = zext i1 %71 to i32
  %73 = icmp ne i32 %67, %72
  br i1 %73, label %74, label %75

74:                                               ; preds = %62
  store i1 false, ptr %3, align 1
  br label %99

75:                                               ; preds = %62
  br label %76

76:                                               ; preds = %75
  br label %77

77:                                               ; preds = %76
  %78 = load ptr, ptr %4, align 8
  %79 = getelementptr inbounds nuw %struct.RangeTableFuncCol, ptr %78, i32 0, i32 5
  %80 = load ptr, ptr %79, align 8
  %81 = load ptr, ptr %5, align 8
  %82 = getelementptr inbounds nuw %struct.RangeTableFuncCol, ptr %81, i32 0, i32 5
  %83 = load ptr, ptr %82, align 8
  %84 = call zeroext i1 @equal(ptr noundef %80, ptr noundef %83)
  br i1 %84, label %86, label %85

85:                                               ; preds = %77
  store i1 false, ptr %3, align 1
  br label %99

86:                                               ; preds = %77
  br label %87

87:                                               ; preds = %86
  br label %88

88:                                               ; preds = %87
  %89 = load ptr, ptr %4, align 8
  %90 = getelementptr inbounds nuw %struct.RangeTableFuncCol, ptr %89, i32 0, i32 6
  %91 = load ptr, ptr %90, align 8
  %92 = load ptr, ptr %5, align 8
  %93 = getelementptr inbounds nuw %struct.RangeTableFuncCol, ptr %92, i32 0, i32 6
  %94 = load ptr, ptr %93, align 8
  %95 = call zeroext i1 @equal(ptr noundef %91, ptr noundef %94)
  br i1 %95, label %97, label %96

96:                                               ; preds = %88
  store i1 false, ptr %3, align 1
  br label %99

97:                                               ; preds = %88
  br label %98

98:                                               ; preds = %97
  store i1 true, ptr %3, align 1
  br label %99

99:                                               ; preds = %98, %96, %85, %74, %59, %44, %33
  %100 = load i1, ptr %3, align 1
  ret i1 %100
}