; Function Attrs: nounwind uwtable
define internal fastcc zeroext i1 @_equalRangeTableFuncCol(ptr noundef nonnull readonly captures(none) %0, ptr noundef nonnull readonly captures(none) %1) unnamed_addr #0 {
  %3 = getelementptr inbounds nuw i8, ptr %0, i64 8
  %4 = load ptr, ptr %3, align 8
  %.not = icmp eq ptr %4, null
  %.phi.trans.insert = getelementptr inbounds nuw i8, ptr %1, i64 8
  %.pre = load ptr, ptr %.phi.trans.insert, align 8
  br i1 %.not, label %9, label %5

5:                                                ; preds = %2
  %.not19 = icmp eq ptr %.pre, null
  br i1 %.not19, label %.thread, label %6

6:                                                ; preds = %5
  %7 = tail call i32 @strcmp(ptr noundef nonnull dereferenceable(1) %4, ptr noundef nonnull dereferenceable(1) %.pre) #11
  %8 = icmp eq i32 %7, 0
  br i1 %8, label %11, label %.thread

9:                                                ; preds = %2
  %10 = icmp eq ptr %4, %.pre
  br i1 %10, label %11, label %.thread

11:                                               ; preds = %9, %6
  %12 = getelementptr inbounds nuw i8, ptr %0, i64 16
  %13 = load ptr, ptr %12, align 8
  %14 = getelementptr inbounds nuw i8, ptr %1, i64 16
  %15 = load ptr, ptr %14, align 8
  %16 = tail call zeroext i1 @equal(ptr noundef %13, ptr noundef %15)
  br i1 %16, label %17, label %.thread

17:                                               ; preds = %11
  %18 = getelementptr inbounds nuw i8, ptr %0, i64 24
  %19 = load i8, ptr %18, align 8, !range !4, !noundef !5
  %20 = getelementptr inbounds nuw i8, ptr %1, i64 24
  %21 = load i8, ptr %20, align 8, !range !4, !noundef !5
  %.not20 = icmp eq i8 %19, %21
  br i1 %.not20, label %22, label %.thread

22:                                               ; preds = %17
  %23 = getelementptr inbounds nuw i8, ptr %0, i64 25
  %24 = load i8, ptr %23, align 1, !range !4, !noundef !5
  %25 = getelementptr inbounds nuw i8, ptr %1, i64 25
  %26 = load i8, ptr %25, align 1, !range !4, !noundef !5
  %.not21 = icmp eq i8 %24, %26
  br i1 %.not21, label %27, label %.thread

27:                                               ; preds = %22
  %28 = getelementptr inbounds nuw i8, ptr %0, i64 32
  %29 = load ptr, ptr %28, align 8
  %30 = getelementptr inbounds nuw i8, ptr %1, i64 32
  %31 = load ptr, ptr %30, align 8
  %32 = tail call zeroext i1 @equal(ptr noundef %29, ptr noundef %31)
  br i1 %32, label %33, label %.thread

33:                                               ; preds = %27
  %34 = getelementptr inbounds nuw i8, ptr %0, i64 40
  %35 = load ptr, ptr %34, align 8
  %36 = getelementptr inbounds nuw i8, ptr %1, i64 40
  %37 = load ptr, ptr %36, align 8
  %38 = tail call zeroext i1 @equal(ptr noundef %35, ptr noundef %37)
  br label %.thread

.thread:                                          ; preds = %5, %33, %27, %22, %17, %11, %6, %9
  %.0 = phi i1 [ false, %9 ], [ false, %6 ], [ false, %11 ], [ false, %17 ], [ false, %22 ], [ false, %27 ], [ %38, %33 ], [ false, %5 ]
  ret i1 %.0
}